; Function Attrs: mustprogress uwtable
define hidden noundef ptr @_ZN4cvc58internal6theory5arith2nl8ExtState8getProofEv(ptr noundef nonnull readonly align 8 captures(none) dereferenceable(696) %0) local_unnamed_addr #3 align 2 {
  %2 = alloca ptr, align 8
  %3 = getelementptr inbounds nuw i8, ptr %0, i64 72
  %4 = load ptr, ptr %3, align 8, !tbaa !62
  call void @llvm.lifetime.start.p0(i64 8, ptr nonnull %2) #24
  %5 = getelementptr inbounds nuw i8, ptr %0, i64 8
  %6 = load ptr, ptr %5, align 8, !tbaa !111
  %7 = tail call noundef ptr @_ZN4cvc58internal3Env14getUserContextEv(ptr noundef nonnull align 8 dereferenceable(696) %6)
  store ptr %7, ptr %2, align 8, !tbaa !112
  %8 = call noundef ptr @_ZN4cvc58internal10CDProofSetINS0_7CDProofEE13allocateProofIJPNS_7context11UserContextEEEEPS2_DpOT_(ptr noundef nonnull align 8 dereferenceable(120) %4, ptr noundef nonnull align 8 dereferenceable(8) %2)
  call void @llvm.lifetime.end.p0(i64 8, ptr nonnull %2) #24
  ret ptr %8
}